target datalayout = "e-m:e-p270:32:32-p271:32:32-p272:64:64-i64:64-i128:128-f80:128-n8:16:32:64-S128"
target triple = "x86_64-pc-linux-gnu"

%struct.AVFilmGrainParams = type { i32, i64, i32, i32, i32, i32, i32, i32, i32, i32, i32, i32, %union.anon }
%union.anon = type { %struct.AVFilmGrainH274Params }
%struct.AVFilmGrainH274Params = type { i32, i32, i32, [3 x i32], [3 x i16], [3 x i8], [3 x [256 x i8]], [3 x [256 x i8]], [3 x [256 x [6 x i16]]] }
%struct.AVFrameSideData = type { i32, ptr, i64, ptr, ptr }

; Function Attrs: nounwind uwtable
define ptr @av_film_grain_params_create_side_data(ptr noundef %0) #0 {
  %2 = alloca ptr, align 8
  %3 = alloca ptr, align 8
  %4 = alloca ptr, align 8
  %5 = alloca ptr, align 8
  %6 = alloca i32, align 4
  %7 = alloca %struct.AVFilmGrainParams, align 8
  store ptr %0, ptr %3, align 8, !tbaa !13
  call void @llvm.lifetime.start.p0(i64 8, ptr %4) #5
  call void @llvm.lifetime.start.p0(i64 8, ptr %5) #5
  %8 = load ptr, ptr %3, align 8, !tbaa !13
  %9 = call ptr @av_frame_new_side_data(ptr noundef %8, i32 noundef 21, i64 noundef 10848)
  store ptr %9, ptr %5, align 8, !tbaa !15
  %10 = load ptr, ptr %5, align 8, !tbaa !15
  %11 = icmp ne ptr %10, null
  br i1 %11, label %13, label %12

12:                                               ; preds = %1
  store ptr null, ptr %2, align 8
  store i32 1, ptr %6, align 4
  br label %23

13:                                               ; preds = %1
  %14 = load ptr, ptr %5, align 8, !tbaa !15
  %15 = getelementptr inbounds nuw %struct.AVFrameSideData, ptr %14, i32 0, i32 1
  %16 = load ptr, ptr %15, align 8, !tbaa !17
  store ptr %16, ptr %4, align 8, !tbaa !9
  %17 = load ptr, ptr %4, align 8, !tbaa !9
  call void @llvm.memset.p0.i64(ptr align 8 %7, i8 0, i64 10848, i1 false)
  %18 = getelementptr inbounds nuw %struct.AVFilmGrainParams, ptr %7, i32 0, i32 6
  store i32 0, ptr %18, align 8, !tbaa !23
  %19 = getelementptr inbounds nuw %struct.AVFilmGrainParams, ptr %7, i32 0, i32 7
  store i32 2, ptr %19, align 4, !tbaa !25
  %20 = getelementptr inbounds nuw %struct.AVFilmGrainParams, ptr %7, i32 0, i32 8
  store i32 2, ptr %20, align 8, !tbaa !26
  %21 = getelementptr inbounds nuw %struct.AVFilmGrainParams, ptr %7, i32 0, i32 9
  store i32 2, ptr %21, align 4, !tbaa !27
  call void @llvm.memcpy.p0.p0.i64(ptr align 8 %17, ptr align 8 %7, i64 10848, i1 false), !tbaa.struct !28
  %22 = load ptr, ptr %4, align 8, !tbaa !9
  store ptr %22, ptr %2, align 8
  store i32 1, ptr %6, align 4
  br label %23

23:                                               ; preds = %13, %12
  call void @llvm.lifetime.end.p0(i64 8, ptr %5) #5
  call void @llvm.lifetime.end.p0(i64 8, ptr %4) #5
  %24 = load ptr, ptr %2, align 8
  ret ptr %24
}