; Function Attrs: nounwind uwtable
define noundef ptr @av_film_grain_params_create_side_data(ptr noundef %0) local_unnamed_addr #0 {
  %2 = tail call ptr @av_frame_new_side_data(ptr noundef %0, i32 noundef 21, i64 noundef 10848) #3
  %.not = icmp eq ptr %2, null
  br i1 %.not, label %6, label %3

3:                                                ; preds = %1
  %4 = getelementptr inbounds nuw i8, ptr %2, i64 8
  %5 = load ptr, ptr %4, align 8, !tbaa !8
  %.sroa.3.0..sroa_idx = getelementptr inbounds nuw i8, ptr %5, i64 36
  tail call void @llvm.memset.p0.i64(ptr noundef nonnull align 8 dereferenceable(36) %5, i8 0, i64 36, i1 false)
  store i32 2, ptr %.sroa.3.0..sroa_idx, align 4, !tbaa !15
  %.sroa.4.0..sroa_idx = getelementptr inbounds nuw i8, ptr %5, i64 40
  store i32 2, ptr %.sroa.4.0..sroa_idx, align 8, !tbaa !15
  %.sroa.5.0..sroa_idx = getelementptr inbounds nuw i8, ptr %5, i64 44
  store i32 2, ptr %.sroa.5.0..sroa_idx, align 4, !tbaa !15
  %.sroa.6.0..sroa_idx = getelementptr inbounds nuw i8, ptr %5, i64 48
  tail call void @llvm.memset.p0.i64(ptr noundef nonnull align 8 dereferenceable(10800) %.sroa.6.0..sroa_idx, i8 0, i64 10800, i1 false)
  br label %6

6:                                                ; preds = %1, %3
  %.0 = phi ptr [ %5, %3 ], [ null, %1 ]
  ret ptr %.0
}